target datalayout = "e-m:e-p270:32:32-p271:32:32-p272:64:64-i64:64-i128:128-f80:128-n8:16:32:64-S128"
target triple = "x86_64-pc-linux-gnu"

%struct.ImGuiDataTypeInfo = type { i64, ptr, ptr, ptr }
%struct.ImVec2 = type { float, float }
%struct.ImRect = type { %struct.ImVec2, %struct.ImVec2 }
%struct.ImGuiWindow = type <{ ptr, ptr, i32, i32, i32, [4 x i8], ptr, %struct.ImVec2, %struct.ImVec2, %struct.ImVec2, %struct.ImVec2, %struct.ImVec2, %struct.ImVec2, %struct.ImVec2, float, float, float, float, float, float, float, float, float, float, i32, i32, i32, i32, %struct.ImVec2, %struct.ImVec2, %struct.ImVec2, %struct.ImVec2, %struct.ImVec2, %struct.ImVec2, i8, i8, i8, i8, i8, i8, i8, i8, i8, i8, i8, i8, i8, i8, i8, i8, i16, i16, i16, i16, i16, i8, i8, i8, [3 x i8], i32, i8, i8, i8, i8, i32, %struct.ImVec2, %struct.ImVec2, [4 x i8], %struct.ImVector, %struct.ImGuiWindowTempData, %struct.ImRect, %struct.ImRect, %struct.ImRect, %struct.ImRect, %struct.ImRect, %struct.ImRect, %struct.ImRect, %struct.ImVec2ih, %struct.ImVec2ih, i32, float, float, [4 x i8], %struct.ImGuiStorage, %struct.ImVector.3, float, float, float, i32, ptr, %struct.ImDrawList, ptr, ptr, ptr, ptr, ptr, ptr, ptr, ptr, [2 x i32], [2 x %struct.ImRect], [2 x %struct.ImVec2], i32, i32, i32, i8, [3 x i8] }>
%struct.ImVector = type { i32, i32, ptr }
%struct.ImGuiWindowTempData = type { %struct.ImVec2, %struct.ImVec2, %struct.ImVec2, %struct.ImVec2, %struct.ImVec2, %struct.ImVec2, %struct.ImVec2, float, float, i8, i8, %struct.ImVec1, %struct.ImVec1, %struct.ImVec1, %struct.ImVec2, i32, i16, i16, i8, i8, i8, i8, %struct.ImVec2, %struct.ImGuiMenuColumns, i32, i32, %struct.ImVector.0, ptr, ptr, i32, i32, i32, i32, i32, i32, float, float, %struct.ImVector.1, %struct.ImVector.1 }
%struct.ImVec1 = type { float }
%struct.ImGuiMenuColumns = type <{ i32, i32, i16, i16, i16, i16, i16, [4 x i16], [2 x i8] }>
%struct.ImVector.0 = type { i32, i32, ptr }
%struct.ImVector.1 = type { i32, i32, ptr }
%struct.ImVec2ih = type { i16, i16 }
%struct.ImGuiStorage = type { %struct.ImVector.2 }
%struct.ImVector.2 = type { i32, i32, ptr }
%struct.ImVector.3 = type { i32, i32, ptr }
%struct.ImDrawList = type { %struct.ImVector.4, %struct.ImVector.5, %struct.ImVector.6, i32, i32, ptr, ptr, ptr, %struct.ImVector.7, %struct.ImDrawCmdHeader, %struct.ImDrawListSplitter, %struct.ImVector.9, %struct.ImVector.10, %struct.ImVector.11, float, ptr }
%struct.ImVector.4 = type { i32, i32, ptr }
%struct.ImVector.5 = type { i32, i32, ptr }
%struct.ImVector.6 = type { i32, i32, ptr }
%struct.ImVector.7 = type { i32, i32, ptr }
%struct.ImDrawCmdHeader = type <{ %struct.ImVec4, i64, i32, [4 x i8] }>
%struct.ImVec4 = type { float, float, float, float }
%struct.ImDrawListSplitter = type { i32, i32, %struct.ImVector.8 }
%struct.ImVector.8 = type { i32, i32, ptr }
%struct.ImVector.9 = type { i32, i32, ptr }
%struct.ImVector.10 = type { i32, i32, ptr }
%struct.ImVector.11 = type { i32, i32, ptr }
%struct.ImGuiContext = type { i8, i8, %struct.ImGuiIO, %struct.ImGuiPlatformIO, %struct.ImGuiStyle, ptr, float, float, float, float, %struct.ImDrawListSharedData, double, i32, i32, i32, i32, i8, i8, i8, i8, ptr, [16 x i8], %struct.ImVector.12, %struct.ImVector.12, i32, i32, %struct.ImVector.0, %struct.ImVector.0, %struct.ImVector.0, %struct.ImVector.13, %struct.ImGuiStorage, i32, float, i32, ptr, ptr, ptr, ptr, ptr, ptr, %struct.ImVec2, i32, i32, float, %struct.ImVec2, %struct.ImVec2, i32, i32, i32, i32, i32, float, float, i8, i8, i8, i32, i32, float, i8, i8, i8, i8, i8, i8, i8, i8, %struct.ImVec2, ptr, i32, i32, %struct.ImGuiDeactivatedItemData, %struct.ImGuiDataTypeStorage, i32, float, double, double, double, %struct.ImBitArray, [154 x %struct.ImGuiKeyOwnerData], %struct.ImGuiKeyRoutingTable, i32, i8, i32, i32, i32, i32, %struct.ImGuiNextItemData, %struct.ImGuiLastItemData, %struct.ImGuiNextWindowData, i8, i32, %struct.ImVector.15, %struct.ImVector.16, %struct.ImVector.17, %struct.ImVector.18, %struct.ImVector.19, %struct.ImVector.20, %struct.ImVector.21, %struct.ImVector.21, %struct.ImVector.22, %struct.ImVector.23, i8, i8, i8, i8, i32, ptr, i32, i32, i32, i32, i32, i32, %struct.ImVector.18, i32, float, i32, i32, i32, i64, i8, i8, i8, i8, %struct.ImGuiNavItemData, i8, i8, i8, i32, i32, i32, i32, i32, i32, %struct.ImRect, %struct.ImRect, i32, i32, i32, %struct.ImGuiNavItemData, %struct.ImGuiNavItemData, %struct.ImGuiNavItemData, %struct.ImGuiNavItemData, i32, i32, i32, i32, i8, i8, i32, i32, ptr, ptr, ptr, float, float, i8, i32, %struct.ImVec2, %struct.ImVec2, float, i8, i8, i8, i32, i32, i32, [4 x i8], %struct.ImGuiPayload, %struct.ImRect, %struct.ImRect, i32, i32, float, i32, i32, i32, i32, %struct.ImVector.11, [16 x i8], i32, %struct.ImVector.24, ptr, i32, i32, %struct.ImVector.25, %struct.ImPool, %struct.ImVector.1, %struct.ImVector.8, ptr, %struct.ImPool.27, %struct.ImVector.29, %struct.ImVector.30, %struct.ImGuiBoxSelectState, ptr, i32, %struct.ImVector.31, %struct.ImPool.32, i32, i32, float, float, i32, i32, i32, float, %struct.ImVec2, %struct.ImGuiInputTextState, %struct.ImGuiInputTextDeactivatedState, %struct.ImFont, i32, %struct.ImGuiDataTypeStorage, i32, i32, i32, i32, i32, float, float, i32, %struct.ImVec4, %struct.ImGuiComboPreviewData, %struct.ImRect, i8, i16, float, float, float, i8, i8, float, float, float, i16, i16, ptr, %struct.ImVector.34, %struct.ImVector, %struct.ImGuiTypingSelectState, %struct.ImGuiPlatformImeData, %struct.ImGuiPlatformImeData, i8, float, %struct.ImGuiTextBuffer, %struct.ImVector.36, %struct.ImChunkStream, %struct.ImChunkStream.37, %struct.ImVector.38, i32, [10 x ptr], i8, i32, ptr, ptr, %struct.ImGuiTextBuffer, ptr, ptr, float, i8, i32, i32, i32, ptr, ptr, %struct.ImVec2, i8, i32, %struct.ImGuiErrorRecoveryState, ptr, i32, i32, %struct.ImGuiTextBuffer, %struct.ImGuiTextIndex, i32, i32, i8, i8, i8, i32, i8, i8, i8, i32, float, %struct.ImVec4, %struct.ImGuiMetricsConfig, %struct.ImGuiIDStackTool, %struct.ImGuiDebugAllocInfo, [60 x float], i32, i32, float, i32, i32, i32, %struct.ImVector.34, [64 x i8] }
%struct.ImGuiIO = type { i32, i32, %struct.ImVec2, float, float, ptr, ptr, ptr, ptr, float, i8, ptr, %struct.ImVec2, i8, i8, i8, i8, i8, i8, i8, i8, i8, i8, i8, i8, i8, i8, i8, i8, i8, float, float, float, float, float, float, i8, i8, i8, i8, i8, i8, i8, i8, i8, i8, ptr, ptr, ptr, ptr, ptr, i8, i8, i8, i8, i8, i8, i8, float, i32, i32, i32, i32, %struct.ImVec2, ptr, %struct.ImVec2, [5 x i8], float, float, i32, i8, i8, i8, i8, i32, [154 x %struct.ImGuiKeyData], i8, %struct.ImVec2, [5 x %struct.ImVec2], [5 x double], [5 x i8], [5 x i8], [5 x i16], [5 x i16], [5 x i8], [5 x double], [5 x i8], [5 x i8], i8, i8, [5 x float], [5 x float], [5 x float], float, i8, i8, i16, %struct.ImVector.5, ptr, ptr, ptr }
%struct.ImGuiKeyData = type { i8, float, float, float }
%struct.ImGuiPlatformIO = type { ptr, ptr, ptr, ptr, ptr, ptr, ptr, i16, ptr }
%struct.ImGuiStyle = type { float, float, %struct.ImVec2, float, float, float, %struct.ImVec2, %struct.ImVec2, i32, float, float, float, float, %struct.ImVec2, float, float, %struct.ImVec2, %struct.ImVec2, %struct.ImVec2, %struct.ImVec2, float, float, float, float, float, float, float, float, float, float, float, float, float, float, %struct.ImVec2, i32, %struct.ImVec2, %struct.ImVec2, float, %struct.ImVec2, %struct.ImVec2, %struct.ImVec2, %struct.ImVec2, float, i8, i8, i8, float, float, [56 x %struct.ImVec4], float, float, float, i32, i32 }
%struct.ImDrawListSharedData = type <{ %struct.ImVec2, ptr, ptr, float, float, float, float, float, i32, %struct.ImVec4, %struct.ImVector.7, [48 x %struct.ImVec2], float, [64 x i8], [4 x i8] }>
%struct.ImVector.12 = type { i32, i32, ptr }
%struct.ImVector.13 = type { i32, i32, ptr }
%struct.ImGuiDeactivatedItemData = type { i32, i32, i8, i8 }
%struct.ImBitArray = type { [5 x i32] }
%struct.ImGuiKeyOwnerData = type <{ i32, i32, i8, i8, [2 x i8] }>
%struct.ImGuiKeyRoutingTable = type { [154 x i16], %struct.ImVector.14, %struct.ImVector.14 }
%struct.ImVector.14 = type { i32, i32, ptr }
%struct.ImGuiNextItemData = type <{ i32, i32, i32, [4 x i8], i64, float, i32, i32, i8, i8, %struct.ImGuiDataTypeStorage, [2 x i8], i32, [4 x i8] }>
%struct.ImGuiLastItemData = type { i32, i32, i32, %struct.ImRect, %struct.ImRect, %struct.ImRect, %struct.ImRect, i32 }
%struct.ImGuiNextWindowData = type { i32, i32, i32, i32, %struct.ImVec2, %struct.ImVec2, %struct.ImVec2, %struct.ImVec2, %struct.ImVec2, i32, i32, i8, %struct.ImRect, ptr, ptr, float, %struct.ImVec2, i32 }
%struct.ImVector.15 = type { i32, i32, ptr }
%struct.ImVector.16 = type { i32, i32, ptr }
%struct.ImVector.17 = type { i32, i32, ptr }
%struct.ImVector.19 = type { i32, i32, ptr }
%struct.ImVector.20 = type { i32, i32, ptr }
%struct.ImVector.21 = type { i32, i32, ptr }
%struct.ImVector.22 = type { i32, i32, ptr }
%struct.ImVector.23 = type { i32, i32, ptr }
%struct.ImVector.18 = type { i32, i32, ptr }
%struct.ImGuiNavItemData = type { ptr, i32, i32, %struct.ImRect, i32, float, float, float, i64 }
%struct.ImGuiPayload = type <{ ptr, i32, i32, i32, i32, [33 x i8], i8, i8, [5 x i8] }>
%struct.ImVector.24 = type { i32, i32, ptr }
%struct.ImVector.25 = type { i32, i32, ptr }
%struct.ImPool = type { %struct.ImVector.26, %struct.ImGuiStorage, i32, i32 }
%struct.ImVector.26 = type { i32, i32, ptr }
%struct.ImPool.27 = type { %struct.ImVector.28, %struct.ImGuiStorage, i32, i32 }
%struct.ImVector.28 = type { i32, i32, ptr }
%struct.ImVector.29 = type { i32, i32, ptr }
%struct.ImVector.30 = type { i32, i32, ptr }
%struct.ImGuiBoxSelectState = type <{ i32, i8, i8, i8, i8, i8, i16, i8, %struct.ImVec2, %struct.ImVec2, %struct.ImVec2, [4 x i8], ptr, i8, [3 x i8], %struct.ImRect, %struct.ImRect, %struct.ImRect, [4 x i8] }>
%struct.ImVector.31 = type { i32, i32, ptr }
%struct.ImPool.32 = type { %struct.ImVector.33, %struct.ImGuiStorage, i32, i32 }
%struct.ImVector.33 = type { i32, i32, ptr }
%struct.ImGuiInputTextState = type <{ ptr, ptr, i32, i32, i32, [4 x i8], ptr, %struct.ImVector.34, %struct.ImVector.34, %struct.ImVector.34, i32, %struct.ImVec2, float, i8, i8, i8, i8, i32, i32, [4 x i8] }>
%struct.ImGuiInputTextDeactivatedState = type { i32, %struct.ImVector.34 }
%struct.ImFont = type <{ %struct.ImVector.1, float, float, %struct.ImVector.5, %struct.ImVector.35, ptr, ptr, ptr, i16, i16, i16, i16, float, float, float, float, float, i32, i8, [1 x i8], [6 x i8] }>
%struct.ImVector.35 = type { i32, i32, ptr }
%struct.ImGuiDataTypeStorage = type { [8 x i8] }
%struct.ImGuiComboPreviewData = type { %struct.ImRect, %struct.ImVec2, %struct.ImVec2, %struct.ImVec2, float, i32 }
%struct.ImGuiTypingSelectState = type <{ %struct.ImGuiTypingSelectRequest, [64 x i8], i32, i32, float, i8, [3 x i8] }>
%struct.ImGuiTypingSelectRequest = type { i32, i32, ptr, i8, i8, i8 }
%struct.ImGuiPlatformImeData = type { i8, %struct.ImVec2, float }
%struct.ImVector.36 = type { i32, i32, ptr }
%struct.ImChunkStream = type { %struct.ImVector.34 }
%struct.ImChunkStream.37 = type { %struct.ImVector.34 }
%struct.ImVector.38 = type { i32, i32, ptr }
%struct.ImGuiErrorRecoveryState = type { i16, i16, i16, i16, i16, i16, i16, i16, i16, i16, i16 }
%struct.ImGuiTextBuffer = type { %struct.ImVector.34 }
%struct.ImGuiTextIndex = type <{ %struct.ImVector.19, i32, [4 x i8] }>
%struct.ImGuiMetricsConfig = type { i8, i8, i8, i8, i8, i8, i8, i8, i8, i32, i32, i32, i32 }
%struct.ImGuiIDStackTool = type { i32, i32, i32, %struct.ImVector.39, i8, float }
%struct.ImVector.39 = type { i32, i32, ptr }
%struct.ImGuiDebugAllocInfo = type { i32, i32, i16, [6 x %struct.ImGuiDebugAllocEntry] }
%struct.ImGuiDebugAllocEntry = type { i32, i16, i16 }
%struct.ImVector.34 = type { i32, i32, ptr }

@GImGui = external global ptr, align 8
@.str = private unnamed_addr constant [1 x i8] zeroinitializer, align 1

; Function Attrs: inlinehint mustprogress nounwind uwtable
define linkonce_odr noundef ptr @_ZN5ImGui16GetCurrentWindowEv() #2 comdat {
  %1 = alloca ptr, align 8
  call void @llvm.lifetime.start.p0(i64 8, ptr %1) #17
  %2 = load ptr, ptr @GImGui, align 8, !tbaa !64
  store ptr %2, ptr %1, align 8, !tbaa !64
  %3 = load ptr, ptr %1, align 8, !tbaa !64
  %4 = getelementptr inbounds nuw %struct.ImGuiContext, ptr %3, i32 0, i32 34
  %5 = load ptr, ptr %4, align 8, !tbaa !173
  %6 = getelementptr inbounds nuw %struct.ImGuiWindow, ptr %5, i32 0, i32 38
  store i8 1, ptr %6, align 4, !tbaa !174
  %7 = load ptr, ptr %1, align 8, !tbaa !64
  %8 = getelementptr inbounds nuw %struct.ImGuiContext, ptr %7, i32 0, i32 34
  %9 = load ptr, ptr %8, align 8, !tbaa !173
  call void @llvm.lifetime.end.p0(i64 8, ptr %1) #17
  ret ptr %9
}

; Function Attrs: mustprogress uwtable
define noundef zeroext i1 @_ZN5ImGui12InputScalarNEPKciPviPKvS4_S1_i(ptr noundef %0, i32 noundef %1, ptr noundef %2, i32 noundef %3, ptr noundef %4, ptr noundef %5, ptr noundef %6, i32 noundef %7) #9 {
  %9 = alloca i1, align 1
  %10 = alloca ptr, align 8
  %11 = alloca i32, align 4
  %12 = alloca ptr, align 8
  %13 = alloca i32, align 4
  %14 = alloca ptr, align 8
  %15 = alloca ptr, align 8
  %16 = alloca ptr, align 8
  %17 = alloca i32, align 4
  %18 = alloca ptr, align 8
  %19 = alloca i32, align 4
  %20 = alloca ptr, align 8
  %21 = alloca i8, align 1
  %22 = alloca i64, align 8
  %23 = alloca i32, align 4
  %24 = alloca ptr, align 8
  store ptr %0, ptr %10, align 8, !tbaa !3
  store i32 %1, ptr %11, align 4, !tbaa !8
  store ptr %2, ptr %12, align 8, !tbaa !334
  store i32 %3, ptr %13, align 4, !tbaa !8
  store ptr %4, ptr %14, align 8, !tbaa !334
  store ptr %5, ptr %15, align 8, !tbaa !334
  store ptr %6, ptr %16, align 8, !tbaa !3
  store i32 %7, ptr %17, align 4, !tbaa !8
  call void @llvm.lifetime.start.p0(i64 8, ptr %18) #17
  %25 = call noundef ptr @_ZN5ImGui16GetCurrentWindowEv()
  store ptr %25, ptr %18, align 8, !tbaa !10
  %26 = load ptr, ptr %18, align 8, !tbaa !10
  %27 = getelementptr inbounds nuw %struct.ImGuiWindow, ptr %26, i32 0, i32 41
  %28 = load i8, ptr %27, align 1, !tbaa !12, !range !62, !noundef !63
  %29 = trunc i8 %28 to i1
  br i1 %29, label %30, label %31

30:                                               ; preds = %8
  store i1 false, ptr %9, align 1
  store i32 1, ptr %19, align 4
  br label %94

31:                                               ; preds = %8
  call void @llvm.lifetime.start.p0(i64 8, ptr %20) #17
  %32 = load ptr, ptr @GImGui, align 8, !tbaa !64
  store ptr %32, ptr %20, align 8, !tbaa !64
  call void @llvm.lifetime.start.p0(i64 1, ptr %21) #17
  store i8 0, ptr %21, align 1, !tbaa !70
  call void @_ZN5ImGui10BeginGroupEv()
  %33 = load ptr, ptr %10, align 8, !tbaa !3
  call void @_ZN5ImGui6PushIDEPKc(ptr noundef %33)
  %34 = load i32, ptr %13, align 4, !tbaa !8
  %35 = call noundef float @_ZN5ImGui13CalcItemWidthEv()
  call void @_ZN5ImGui20PushMultiItemsWidthsEif(i32 noundef %34, float noundef %35)
  call void @llvm.lifetime.start.p0(i64 8, ptr %22) #17
  %36 = load i32, ptr %11, align 4, !tbaa !8
  %37 = sext i32 %36 to i64
  %38 = getelementptr inbounds [12 x %struct.ImGuiDataTypeInfo], ptr @_ZL13GDataTypeInfo, i64 0, i64 %37
  %39 = getelementptr inbounds nuw %struct.ImGuiDataTypeInfo, ptr %38, i32 0, i32 0
  %40 = load i64, ptr %39, align 16, !tbaa !395
  store i64 %40, ptr %22, align 8, !tbaa !245
  call void @llvm.lifetime.start.p0(i64 4, ptr %23) #17
  store i32 0, ptr %23, align 4, !tbaa !8
  br label %41

41:                                               ; preds = %74, %31
  %42 = load i32, ptr %23, align 4, !tbaa !8
  %43 = load i32, ptr %13, align 4, !tbaa !8
  %44 = icmp slt i32 %42, %43
  br i1 %44, label %46, label %45

45:                                               ; preds = %41
  store i32 2, ptr %19, align 4
  call void @llvm.lifetime.end.p0(i64 4, ptr %23) #17
  br label %77

46:                                               ; preds = %41
  %47 = load i32, ptr %23, align 4, !tbaa !8
  call void @_ZN5ImGui6PushIDEi(i32 noundef %47)
  %48 = load i32, ptr %23, align 4, !tbaa !8
  %49 = icmp sgt i32 %48, 0
  br i1 %49, label %50, label %56

50:                                               ; preds = %46
  %51 = load ptr, ptr %20, align 8, !tbaa !64
  %52 = getelementptr inbounds nuw %struct.ImGuiContext, ptr %51, i32 0, i32 4
  %53 = getelementptr inbounds nuw %struct.ImGuiStyle, ptr %52, i32 0, i32 17
  %54 = getelementptr inbounds nuw %struct.ImVec2, ptr %53, i32 0, i32 0
  %55 = load float, ptr %54, align 8, !tbaa !411
  call void @_ZN5ImGui8SameLineEff(float noundef 0.000000e+00, float noundef %55)
  br label %56

56:                                               ; preds = %50, %46
  %57 = load i32, ptr %11, align 4, !tbaa !8
  %58 = load ptr, ptr %12, align 8, !tbaa !334
  %59 = load ptr, ptr %14, align 8, !tbaa !334
  %60 = load ptr, ptr %15, align 8, !tbaa !334
  %61 = load ptr, ptr %16, align 8, !tbaa !3
  %62 = load i32, ptr %17, align 4, !tbaa !8
  %63 = call noundef zeroext i1 @_ZN5ImGui11InputScalarEPKciPvPKvS4_S1_i(ptr noundef @.str, i32 noundef %57, ptr noundef %58, ptr noundef %59, ptr noundef %60, ptr noundef %61, i32 noundef %62)
  %64 = zext i1 %63 to i32
  %65 = load i8, ptr %21, align 1, !tbaa !70, !range !62, !noundef !63
  %66 = trunc i8 %65 to i1
  %67 = zext i1 %66 to i32
  %68 = or i32 %67, %64
  %69 = icmp ne i32 %68, 0
  %70 = zext i1 %69 to i8
  store i8 %70, ptr %21, align 1, !tbaa !70
  call void @_ZN5ImGui5PopIDEv()
  call void @_ZN5ImGui12PopItemWidthEv()
  %71 = load ptr, ptr %12, align 8, !tbaa !334
  %72 = load i64, ptr %22, align 8, !tbaa !245
  %73 = getelementptr inbounds nuw i8, ptr %71, i64 %72
  store ptr %73, ptr %12, align 8, !tbaa !334
  br label %74

74:                                               ; preds = %56
  %75 = load i32, ptr %23, align 4, !tbaa !8
  %76 = add nsw i32 %75, 1
  store i32 %76, ptr %23, align 4, !tbaa !8
  br label %41, !llvm.loop !508

77:                                               ; preds = %45
  call void @_ZN5ImGui5PopIDEv()
  call void @llvm.lifetime.start.p0(i64 8, ptr %24) #17
  %78 = load ptr, ptr %10, align 8, !tbaa !3
  %79 = call noundef ptr @_ZN5ImGui19FindRenderedTextEndEPKcS1_(ptr noundef %78, ptr noundef null)
  store ptr %79, ptr %24, align 8, !tbaa !3
  %80 = load ptr, ptr %10, align 8, !tbaa !3
  %81 = load ptr, ptr %24, align 8, !tbaa !3
  %82 = icmp ne ptr %80, %81
  br i1 %82, label %83, label %91

83:                                               ; preds = %77
  %84 = load ptr, ptr %20, align 8, !tbaa !64
  %85 = getelementptr inbounds nuw %struct.ImGuiContext, ptr %84, i32 0, i32 4
  %86 = getelementptr inbounds nuw %struct.ImGuiStyle, ptr %85, i32 0, i32 17
  %87 = getelementptr inbounds nuw %struct.ImVec2, ptr %86, i32 0, i32 0
  %88 = load float, ptr %87, align 8, !tbaa !411
  call void @_ZN5ImGui8SameLineEff(float noundef 0.000000e+00, float noundef %88)
  %89 = load ptr, ptr %10, align 8, !tbaa !3
  %90 = load ptr, ptr %24, align 8, !tbaa !3
  call void @_ZN5ImGui6TextExEPKcS1_i(ptr noundef %89, ptr noundef %90, i32 noundef 0)
  br label %91

91:                                               ; preds = %83, %77
  call void @_ZN5ImGui8EndGroupEv()
  %92 = load i8, ptr %21, align 1, !tbaa !70, !range !62, !noundef !63
  %93 = trunc i8 %92 to i1
  store i1 %93, ptr %9, align 1
  store i32 1, ptr %19, align 4
  call void @llvm.lifetime.end.p0(i64 8, ptr %24) #17
  call void @llvm.lifetime.end.p0(i64 8, ptr %22) #17
  call void @llvm.lifetime.end.p0(i64 1, ptr %21) #17
  call void @llvm.lifetime.end.p0(i64 8, ptr %20) #17
  br label %94

94:                                               ; preds = %91, %30
  call void @llvm.lifetime.end.p0(i64 8, ptr %18) #17
  %95 = load i1, ptr %9, align 1
  ret i1 %95
}